; Function Attrs: nounwind uwtable
define ptr @l_Lean_Meta_reduce___boxed(ptr noundef %0, ptr noundef %1, ptr noundef %2, ptr noundef %3, ptr noundef %4, ptr noundef %5, ptr noundef %6, ptr noundef %7, ptr noundef %8) local_unnamed_addr #1 {
  %10 = ptrtoint ptr %1 to i64
  %11 = and i64 %10, 1
  %.not = icmp eq i64 %11, 0
  br i1 %.not, label %12, label %lean_dec.exit16

12:                                               ; preds = %9
  %13 = load i32, ptr %1, align 4, !tbaa !8
  %14 = icmp sgt i32 %13, 1
  br i1 %14, label %15, label %17, !prof !11

15:                                               ; preds = %12
  %16 = add nsw i32 %13, -1
  store i32 %16, ptr %1, align 4, !tbaa !8
  br label %lean_dec.exit16

17:                                               ; preds = %12
  %.not.i = icmp eq i32 %13, 0
  br i1 %.not.i, label %lean_dec.exit16, label %18

18:                                               ; preds = %17
  tail call void @lean_dec_ref_cold(ptr noundef nonnull %1) #4
  br label %lean_dec.exit16

lean_dec.exit16:                                  ; preds = %18, %17, %15, %9
  %19 = ptrtoint ptr %2 to i64
  %20 = and i64 %19, 1
  %.not21 = icmp eq i64 %20, 0
  br i1 %.not21, label %21, label %lean_dec.exit15

21:                                               ; preds = %lean_dec.exit16
  %22 = load i32, ptr %2, align 4, !tbaa !8
  %23 = icmp sgt i32 %22, 1
  br i1 %23, label %24, label %26, !prof !11

24:                                               ; preds = %21
  %25 = add nsw i32 %22, -1
  store i32 %25, ptr %2, align 4, !tbaa !8
  br label %lean_dec.exit15

26:                                               ; preds = %21
  %.not.i17 = icmp eq i32 %22, 0
  br i1 %.not.i17, label %lean_dec.exit15, label %27

27:                                               ; preds = %26
  tail call void @lean_dec_ref_cold(ptr noundef nonnull %2) #4
  br label %lean_dec.exit15

lean_dec.exit15:                                  ; preds = %27, %26, %24, %lean_dec.exit16
  %28 = ptrtoint ptr %3 to i64
  %29 = and i64 %28, 1
  %.not22 = icmp eq i64 %29, 0
  br i1 %.not22, label %30, label %lean_dec.exit

30:                                               ; preds = %lean_dec.exit15
  %31 = load i32, ptr %3, align 4, !tbaa !8
  %32 = icmp sgt i32 %31, 1
  br i1 %32, label %33, label %35, !prof !11

33:                                               ; preds = %30
  %34 = add nsw i32 %31, -1
  store i32 %34, ptr %3, align 4, !tbaa !8
  br label %lean_dec.exit

35:                                               ; preds = %30
  %.not.i19 = icmp eq i32 %31, 0
  br i1 %.not.i19, label %lean_dec.exit, label %36

36:                                               ; preds = %35
  tail call void @lean_dec_ref_cold(ptr noundef nonnull %3) #4
  br label %lean_dec.exit

lean_dec.exit:                                    ; preds = %36, %35, %33, %lean_dec.exit15
  %37 = lshr i64 %28, 1
  %38 = trunc i64 %37 to i8
  %39 = lshr i64 %19, 1
  %40 = trunc i64 %39 to i8
  %41 = lshr i64 %10, 1
  %42 = trunc i64 %41 to i8
  %43 = tail call ptr @l_Lean_Meta_reduce(ptr noundef %0, i8 noundef zeroext %42, i8 noundef zeroext %40, i8 noundef zeroext %38, ptr noundef %4, ptr noundef %5, ptr noundef %6, ptr noundef %7, ptr noundef %8)
  ret ptr %43
}